; Function Attrs: nounwind uwtable
define ptr @l_Lean_resolveNamespaceCore___at_Lean_Elab_OpenDecl_elabOpenDecl___spec__60___rarg___lambda__2(ptr noundef %0, ptr noundef %1, ptr noundef %2, ptr noundef %3, ptr noundef %4, i8 noundef zeroext %5, ptr noundef %6, ptr noundef %7, ptr noundef %8, ptr noundef %9, ptr noundef %10) local_unnamed_addr #0 {
  %12 = ptrtoint ptr %0 to i64
  %13 = and i64 %12, 1
  %.not = icmp eq i64 %13, 0
  br i1 %.not, label %14, label %lean_inc.exit33

14:                                               ; preds = %11
  %.val.i = load i32, ptr %0, align 4, !tbaa !8
  %15 = icmp sgt i32 %.val.i, 0
  br i1 %15, label %16, label %18, !prof !11

16:                                               ; preds = %14
  %17 = add nuw i32 %.val.i, 1
  store i32 %17, ptr %0, align 4, !tbaa !8
  br label %lean_inc.exit33

18:                                               ; preds = %14
  %.not.i = icmp eq i32 %.val.i, 0
  br i1 %.not.i, label %lean_inc.exit33, label %19

19:                                               ; preds = %18
  tail call void @lean_inc_ref_cold(ptr noundef nonnull %0) #6
  br label %lean_inc.exit33

lean_inc.exit33:                                  ; preds = %19, %18, %16, %11
  tail call void @lean_inc_heartbeat() #6
  %20 = tail call noalias ptr @mi_malloc_small(i64 noundef 32) #6
  %21 = icmp eq ptr %20, null
  br i1 %21, label %22, label %lean_alloc_closure.exit

22:                                               ; preds = %lean_inc.exit33
  tail call void @lean_internal_panic_out_of_memory() #7
  unreachable

lean_alloc_closure.exit:                          ; preds = %lean_inc.exit33
  %23 = getelementptr inbounds nuw i8, ptr %20, i64 4
  store i32 1, ptr %20, align 4, !tbaa !8
  store i32 -184549344, ptr %23, align 4
  %24 = getelementptr inbounds nuw i8, ptr %20, i64 8
  store ptr @l_Lean_resolveGlobalName___at_Lean_Elab_OpenDecl_resolveId___spec__3___rarg___lambda__2, ptr %24, align 8, !tbaa !4
  %25 = getelementptr inbounds nuw i8, ptr %20, i64 16
  store i16 2, ptr %25, align 8, !tbaa !12
  %26 = getelementptr inbounds nuw i8, ptr %20, i64 18
  store i16 1, ptr %26, align 2, !tbaa !12
  %27 = getelementptr inbounds nuw i8, ptr %20, i64 24
  store ptr %0, ptr %27, align 8, !tbaa !4
  %28 = ptrtoint ptr %1 to i64
  %29 = and i64 %28, 1
  %.not41 = icmp eq i64 %29, 0
  br i1 %.not41, label %30, label %lean_inc.exit32

30:                                               ; preds = %lean_alloc_closure.exit
  %.val.i34 = load i32, ptr %1, align 4, !tbaa !8
  %31 = icmp sgt i32 %.val.i34, 0
  br i1 %31, label %32, label %34, !prof !11

32:                                               ; preds = %30
  %33 = add nuw i32 %.val.i34, 1
  store i32 %33, ptr %1, align 4, !tbaa !8
  br label %37

34:                                               ; preds = %30
  %.not.i35 = icmp eq i32 %.val.i34, 0
  br i1 %.not.i35, label %37, label %35

35:                                               ; preds = %34
  tail call void @lean_inc_ref_cold(ptr noundef nonnull %1) #6
  br label %37

lean_inc.exit32:                                  ; preds = %lean_alloc_closure.exit
  %36 = tail call ptr @lean_apply_4(ptr noundef %1, ptr noundef nonnull inttoptr (i64 1 to ptr), ptr noundef nonnull inttoptr (i64 1 to ptr), ptr noundef %2, ptr noundef nonnull %20) #6
  br label %lean_inc.exit

37:                                               ; preds = %35, %34, %32
  %38 = tail call ptr @lean_apply_4(ptr noundef nonnull %1, ptr noundef nonnull inttoptr (i64 1 to ptr), ptr noundef nonnull inttoptr (i64 1 to ptr), ptr noundef %2, ptr noundef nonnull %20) #6
  %.val.i37 = load i32, ptr %1, align 4, !tbaa !8
  %39 = icmp sgt i32 %.val.i37, 0
  br i1 %39, label %40, label %42, !prof !11

40:                                               ; preds = %37
  %41 = add nuw i32 %.val.i37, 1
  store i32 %41, ptr %1, align 4, !tbaa !8
  br label %lean_inc.exit

42:                                               ; preds = %37
  %.not.i38 = icmp eq i32 %.val.i37, 0
  br i1 %.not.i38, label %lean_inc.exit, label %43

43:                                               ; preds = %42
  tail call void @lean_inc_ref_cold(ptr noundef nonnull %1) #6
  br label %lean_inc.exit

lean_inc.exit:                                    ; preds = %lean_inc.exit32, %43, %42, %40
  %44 = phi ptr [ %38, %43 ], [ %38, %42 ], [ %38, %40 ], [ %36, %lean_inc.exit32 ]
  tail call void @lean_inc_heartbeat() #6
  %45 = tail call noalias ptr @mi_malloc_small(i64 noundef 104) #6
  %46 = icmp eq ptr %45, null
  br i1 %46, label %47, label %lean_alloc_closure.exit40

47:                                               ; preds = %lean_inc.exit
  tail call void @lean_internal_panic_out_of_memory() #7
  unreachable

lean_alloc_closure.exit40:                        ; preds = %lean_inc.exit
  %48 = zext i8 %5 to i64
  %49 = shl nuw nsw i64 %48, 1
  %50 = or disjoint i64 %49, 1
  %51 = inttoptr i64 %50 to ptr
  %52 = getelementptr inbounds nuw i8, ptr %45, i64 4
  store i32 1, ptr %45, align 4, !tbaa !8
  store i32 -184549272, ptr %52, align 4
  %53 = getelementptr inbounds nuw i8, ptr %45, i64 8
  store ptr @l_Lean_resolveNamespaceCore___at_Lean_Elab_OpenDecl_elabOpenDecl___spec__60___rarg___lambda__1___boxed, ptr %53, align 8, !tbaa !4
  %54 = getelementptr inbounds nuw i8, ptr %45, i64 16
  store i16 11, ptr %54, align 8, !tbaa !12
  %55 = getelementptr inbounds nuw i8, ptr %45, i64 18
  store i16 10, ptr %55, align 2, !tbaa !12
  %56 = getelementptr inbounds nuw i8, ptr %45, i64 24
  store ptr %3, ptr %56, align 8, !tbaa !4
  %57 = getelementptr inbounds nuw i8, ptr %45, i64 32
  store ptr %10, ptr %57, align 8, !tbaa !4
  %58 = getelementptr inbounds nuw i8, ptr %45, i64 40
  store ptr %4, ptr %58, align 8, !tbaa !4
  %59 = getelementptr inbounds nuw i8, ptr %45, i64 48
  store ptr %0, ptr %59, align 8, !tbaa !4
  %60 = getelementptr inbounds nuw i8, ptr %45, i64 56
  store ptr %51, ptr %60, align 8, !tbaa !4
  %61 = getelementptr inbounds nuw i8, ptr %45, i64 64
  store ptr %6, ptr %61, align 8, !tbaa !4
  %62 = getelementptr inbounds nuw i8, ptr %45, i64 72
  store ptr %1, ptr %62, align 8, !tbaa !4
  %63 = getelementptr inbounds nuw i8, ptr %45, i64 80
  store ptr %7, ptr %63, align 8, !tbaa !4
  %64 = getelementptr inbounds nuw i8, ptr %45, i64 88
  store ptr %8, ptr %64, align 8, !tbaa !4
  %65 = getelementptr inbounds nuw i8, ptr %45, i64 96
  store ptr %9, ptr %65, align 8, !tbaa !4
  %66 = tail call ptr @lean_apply_4(ptr noundef %1, ptr noundef nonnull inttoptr (i64 1 to ptr), ptr noundef nonnull inttoptr (i64 1 to ptr), ptr noundef %44, ptr noundef nonnull %45) #6
  ret ptr %66
}